target datalayout = "e-m:e-p270:32:32-p271:32:32-p272:64:64-i64:64-i128:128-f80:128-n8:16:32:64-S128"
target triple = "x86_64-pc-linux-gnu"

%struct.CodedBitstreamFragment = type { ptr, i64, i64, ptr, i32, i32, ptr }
%struct.AVRational = type { i32, i32 }
%struct.AVPacket = type { ptr, i64, i64, ptr, i32, i32, i32, ptr, i32, i64, i64, ptr, ptr, %struct.AVRational }

; Function Attrs: nounwind uwtable
define i32 @ff_cbs_write_packet(ptr noundef %0, ptr noundef %1, ptr noundef %2) #3 {
  %4 = alloca i32, align 4
  %5 = alloca ptr, align 8
  %6 = alloca ptr, align 8
  %7 = alloca ptr, align 8
  %8 = alloca ptr, align 8
  %9 = alloca i32, align 4
  %10 = alloca i32, align 4
  store ptr %0, ptr %5, align 8, !tbaa !22
  store ptr %1, ptr %6, align 8, !tbaa !83
  store ptr %2, ptr %7, align 8, !tbaa !39
  call void @llvm.lifetime.start.p0(i64 8, ptr %8) #13
  call void @llvm.lifetime.start.p0(i64 4, ptr %9) #13
  %11 = load ptr, ptr %5, align 8, !tbaa !22
  %12 = load ptr, ptr %7, align 8, !tbaa !39
  %13 = call i32 @ff_cbs_write_fragment_data(ptr noundef %11, ptr noundef %12)
  store i32 %13, ptr %9, align 4, !tbaa !10
  %14 = load i32, ptr %9, align 4, !tbaa !10
  %15 = icmp slt i32 %14, 0
  br i1 %15, label %16, label %18

16:                                               ; preds = %3
  %17 = load i32, ptr %9, align 4, !tbaa !10
  store i32 %17, ptr %4, align 4
  store i32 1, ptr %10, align 4
  br label %43

18:                                               ; preds = %3
  %19 = load ptr, ptr %7, align 8, !tbaa !39
  %20 = getelementptr inbounds nuw %struct.CodedBitstreamFragment, ptr %19, i32 0, i32 3
  %21 = load ptr, ptr %20, align 8, !tbaa !68
  %22 = call ptr @av_buffer_ref(ptr noundef %21)
  store ptr %22, ptr %8, align 8, !tbaa !65
  %23 = load ptr, ptr %8, align 8, !tbaa !65
  %24 = icmp ne ptr %23, null
  br i1 %24, label %26, label %25

25:                                               ; preds = %18
  store i32 -12, ptr %4, align 4
  store i32 1, ptr %10, align 4
  br label %43

26:                                               ; preds = %18
  %27 = load ptr, ptr %6, align 8, !tbaa !83
  %28 = getelementptr inbounds nuw %struct.AVPacket, ptr %27, i32 0, i32 0
  call void @av_buffer_unref(ptr noundef %28)
  %29 = load ptr, ptr %8, align 8, !tbaa !65
  %30 = load ptr, ptr %6, align 8, !tbaa !83
  %31 = getelementptr inbounds nuw %struct.AVPacket, ptr %30, i32 0, i32 0
  store ptr %29, ptr %31, align 8, !tbaa !85
  %32 = load ptr, ptr %7, align 8, !tbaa !39
  %33 = getelementptr inbounds nuw %struct.CodedBitstreamFragment, ptr %32, i32 0, i32 0
  %34 = load ptr, ptr %33, align 8, !tbaa !47
  %35 = load ptr, ptr %6, align 8, !tbaa !83
  %36 = getelementptr inbounds nuw %struct.AVPacket, ptr %35, i32 0, i32 3
  store ptr %34, ptr %36, align 8, !tbaa !87
  %37 = load ptr, ptr %7, align 8, !tbaa !39
  %38 = getelementptr inbounds nuw %struct.CodedBitstreamFragment, ptr %37, i32 0, i32 1
  %39 = load i64, ptr %38, align 8, !tbaa !48
  %40 = trunc i64 %39 to i32
  %41 = load ptr, ptr %6, align 8, !tbaa !83
  %42 = getelementptr inbounds nuw %struct.AVPacket, ptr %41, i32 0, i32 4
  store i32 %40, ptr %42, align 8, !tbaa !88
  store i32 0, ptr %4, align 4
  store i32 1, ptr %10, align 4
  br label %43

43:                                               ; preds = %26, %25, %16
  call void @llvm.lifetime.end.p0(i64 4, ptr %9) #13
  call void @llvm.lifetime.end.p0(i64 8, ptr %8) #13
  %44 = load i32, ptr %4, align 4
  ret i32 %44
}