; Function Attrs: nounwind uwtable
define range(i32 -2147483648, 1) i32 @ff_cbs_write_packet(ptr noundef %0, ptr noundef %1, ptr noundef %2) local_unnamed_addr #3 {
  %4 = tail call i32 @ff_cbs_write_fragment_data(ptr noundef %0, ptr noundef %2)
  %5 = icmp slt i32 %4, 0
  br i1 %5, label %17, label %6

6:                                                ; preds = %3
  %7 = getelementptr inbounds nuw i8, ptr %2, i64 24
  %8 = load ptr, ptr %7, align 8, !tbaa !49
  %9 = tail call ptr @av_buffer_ref(ptr noundef %8) #10
  %.not = icmp eq ptr %9, null
  br i1 %.not, label %17, label %10

10:                                               ; preds = %6
  tail call void @av_buffer_unref(ptr noundef %1) #10
  store ptr %9, ptr %1, align 8, !tbaa !76
  %11 = load ptr, ptr %2, align 8, !tbaa !50
  %12 = getelementptr inbounds nuw i8, ptr %1, i64 24
  store ptr %11, ptr %12, align 8, !tbaa !78
  %13 = getelementptr inbounds nuw i8, ptr %2, i64 8
  %14 = load i64, ptr %13, align 8, !tbaa !51
  %15 = trunc i64 %14 to i32
  %16 = getelementptr inbounds nuw i8, ptr %1, i64 32
  store i32 %15, ptr %16, align 8, !tbaa !79
  br label %17

17:                                               ; preds = %6, %3, %10
  %.0 = phi i32 [ 0, %10 ], [ %4, %3 ], [ -12, %6 ]
  ret i32 %.0
}